target datalayout = "e-m:e-p270:32:32-p271:32:32-p272:64:64-i64:64-i128:128-f80:128-n8:16:32:64-S128"
target triple = "x86_64-pc-linux-gnu"

%struct.PaPulseAudio_HostApiRepresentation = type { %struct.PaUtilHostApiRepresentation, %struct.PaUtilStreamInterface, %struct.PaUtilStreamInterface, ptr, i32, [1024 x %struct.PaDeviceInfo], [1024 x ptr], %struct.pa_sample_spec, ptr, ptr, ptr, i32, ptr }
%struct.PaUtilHostApiRepresentation = type { %struct.PaUtilPrivatePaFrontHostApiInfo, %struct.PaHostApiInfo, ptr, ptr, ptr, ptr }
%struct.PaUtilPrivatePaFrontHostApiInfo = type { i64 }
%struct.PaHostApiInfo = type { i32, i32, ptr, i32, i32, i32 }
%struct.PaUtilStreamInterface = type { ptr, ptr, ptr, ptr, ptr, ptr, ptr, ptr, ptr, ptr, ptr, ptr }
%struct.PaDeviceInfo = type { i32, ptr, i32, i32, i32, double, double, double, double, double }
%struct.pa_sample_spec = type { i32, i32, i8 }
%struct.PaPulseAudio_Stream = type { %struct.PaUtilStreamRepresentation, %struct.PaUtilCpuLoadMeasurer, %struct.PaUtilBufferProcessor, ptr, i64, ptr, ptr, %struct.pa_sample_spec, %struct.pa_sample_spec, ptr, ptr, %struct.pa_buffer_attr, %struct.pa_buffer_attr, i32, i32, i32, i32, i64, i64, i32, i32, i32, i32, ptr, ptr, %struct.PaUtilRingBuffer, i64, i32, i32, i32, i32 }
%struct.PaUtilStreamRepresentation = type { i64, ptr, ptr, ptr, ptr, ptr, %struct.PaStreamInfo }
%struct.PaStreamInfo = type { i32, double, double, double }
%struct.PaUtilCpuLoadMeasurer = type { double, double, double }
%struct.PaUtilBufferProcessor = type { i64, i64, i32, i32, i32, i32, i64, i32, i32, i32, i32, ptr, ptr, i32, i32, i32, i32, ptr, ptr, i64, i64, ptr, ptr, i64, ptr, ptr, i64, ptr, i64, i32, [2 x i64], [2 x ptr], i32, [2 x i64], [2 x ptr], %struct.PaUtilTriangularDitherGenerator, double, ptr, ptr }
%struct.PaUtilTriangularDitherGenerator = type { i32, i32, i32 }
%struct.pa_buffer_attr = type { i32, i32, i32, i32, i32 }
%struct.PaUtilRingBuffer = type { i64, i64, i64, i64, i64, i64, ptr }

; Function Attrs: nounwind uwtable
define void @PaPulseAudio_UnLock(ptr noundef %0) #0 {
  %2 = alloca ptr, align 8
  store ptr %0, ptr %2, align 8, !tbaa !39
  %3 = load ptr, ptr %2, align 8, !tbaa !39
  %4 = call i32 @pa_threaded_mainloop_in_thread(ptr noundef %3)
  %5 = icmp ne i32 %4, 0
  br i1 %5, label %8, label %6

6:                                                ; preds = %1
  %7 = load ptr, ptr %2, align 8, !tbaa !39
  call void @pa_threaded_mainloop_unlock(ptr noundef %7)
  br label %9

8:                                                ; preds = %1
  br label %9

9:                                                ; preds = %8, %6
  ret void
}

; Function Attrs: nounwind uwtable
define void @PaPulseAudio_Lock(ptr noundef %0) #0 {
  %2 = alloca ptr, align 8
  store ptr %0, ptr %2, align 8, !tbaa !39
  %3 = load ptr, ptr %2, align 8, !tbaa !39
  %4 = call i32 @pa_threaded_mainloop_in_thread(ptr noundef %3)
  %5 = icmp ne i32 %4, 0
  br i1 %5, label %8, label %6

6:                                                ; preds = %1
  %7 = load ptr, ptr %2, align 8, !tbaa !39
  call void @pa_threaded_mainloop_lock(ptr noundef %7)
  br label %9

8:                                                ; preds = %1
  br label %9

9:                                                ; preds = %8, %6
  ret void
}

; Function Attrs: nounwind uwtable
define internal i32 @RequestStop(ptr noundef %0, i32 noundef %1) #0 {
  %3 = alloca ptr, align 8
  %4 = alloca i32, align 4
  %5 = alloca i32, align 4
  %6 = alloca ptr, align 8
  %7 = alloca ptr, align 8
  store ptr %0, ptr %3, align 8, !tbaa !42
  store i32 %1, ptr %4, align 4, !tbaa !10
  call void @llvm.lifetime.start.p0(i64 4, ptr %5) #6
  store i32 0, ptr %5, align 4, !tbaa !10
  call void @llvm.lifetime.start.p0(i64 8, ptr %6) #6
  %8 = load ptr, ptr %3, align 8, !tbaa !42
  %9 = getelementptr inbounds nuw %struct.PaPulseAudio_Stream, ptr %8, i32 0, i32 3
  %10 = load ptr, ptr %9, align 8, !tbaa !69
  store ptr %10, ptr %6, align 8, !tbaa !19
  call void @llvm.lifetime.start.p0(i64 8, ptr %7) #6
  store ptr null, ptr %7, align 8, !tbaa !22
  %11 = load ptr, ptr %6, align 8, !tbaa !19
  %12 = getelementptr inbounds nuw %struct.PaPulseAudio_HostApiRepresentation, ptr %11, i32 0, i32 8
  %13 = load ptr, ptr %12, align 8, !tbaa !24
  call void @PaPulseAudio_Lock(ptr noundef %13)
  %14 = load ptr, ptr %3, align 8, !tbaa !42
  %15 = getelementptr inbounds nuw %struct.PaPulseAudio_Stream, ptr %14, i32 0, i32 27
  store volatile i32 0, ptr %15, align 8, !tbaa !63
  %16 = load ptr, ptr %3, align 8, !tbaa !42
  %17 = getelementptr inbounds nuw %struct.PaPulseAudio_Stream, ptr %16, i32 0, i32 28
  store volatile i32 1, ptr %17, align 4, !tbaa !66
  %18 = load ptr, ptr %3, align 8, !tbaa !42
  %19 = getelementptr inbounds nuw %struct.PaPulseAudio_Stream, ptr %18, i32 0, i32 29
  store volatile i32 0, ptr %19, align 8, !tbaa !64
  %20 = load ptr, ptr %3, align 8, !tbaa !42
  %21 = getelementptr inbounds nuw %struct.PaPulseAudio_Stream, ptr %20, i32 0, i32 30
  store volatile i32 1, ptr %21, align 4, !tbaa !70
  %22 = load ptr, ptr %3, align 8, !tbaa !42
  %23 = getelementptr inbounds nuw %struct.PaPulseAudio_Stream, ptr %22, i32 0, i32 26
  store i64 0, ptr %23, align 8, !tbaa !67
  %24 = load ptr, ptr %3, align 8, !tbaa !42
  %25 = getelementptr inbounds nuw %struct.PaPulseAudio_Stream, ptr %24, i32 0, i32 9
  %26 = load ptr, ptr %25, align 8, !tbaa !58
  %27 = icmp ne ptr %26, null
  br i1 %27, label %28, label %56

28:                                               ; preds = %2
  %29 = load ptr, ptr %3, align 8, !tbaa !42
  %30 = getelementptr inbounds nuw %struct.PaPulseAudio_Stream, ptr %29, i32 0, i32 9
  %31 = load ptr, ptr %30, align 8, !tbaa !58
  %32 = call i32 @pa_stream_get_state(ptr noundef %31)
  %33 = icmp eq i32 %32, 2
  br i1 %33, label %34, label %56

34:                                               ; preds = %28
  %35 = load ptr, ptr %3, align 8, !tbaa !42
  %36 = getelementptr inbounds nuw %struct.PaPulseAudio_Stream, ptr %35, i32 0, i32 9
  %37 = load ptr, ptr %36, align 8, !tbaa !58
  %38 = call i32 @pa_stream_is_corked(ptr noundef %37)
  %39 = icmp ne i32 %38, 0
  br i1 %39, label %56, label %40

40:                                               ; preds = %34
  %41 = load i32, ptr %4, align 4, !tbaa !10
  %42 = icmp ne i32 %41, 0
  br i1 %42, label %56, label %43

43:                                               ; preds = %40
  %44 = load ptr, ptr %3, align 8, !tbaa !42
  %45 = getelementptr inbounds nuw %struct.PaPulseAudio_Stream, ptr %44, i32 0, i32 9
  %46 = load ptr, ptr %45, align 8, !tbaa !58
  %47 = load ptr, ptr %3, align 8, !tbaa !42
  %48 = call ptr @pa_stream_cork(ptr noundef %46, i32 noundef 1, ptr noundef @PaPulseAudio_CorkSuccessCb, ptr noundef %47)
  store ptr %48, ptr %7, align 8, !tbaa !22
  %49 = load ptr, ptr %6, align 8, !tbaa !19
  %50 = getelementptr inbounds nuw %struct.PaPulseAudio_HostApiRepresentation, ptr %49, i32 0, i32 8
  %51 = load ptr, ptr %50, align 8, !tbaa !24
  call void @PaPulseAudio_UnLock(ptr noundef %51)
  %52 = load ptr, ptr %6, align 8, !tbaa !19
  call void @PaPulseAudio_ReleaseOperation(ptr noundef %52, ptr noundef %7)
  %53 = load ptr, ptr %6, align 8, !tbaa !19
  %54 = getelementptr inbounds nuw %struct.PaPulseAudio_HostApiRepresentation, ptr %53, i32 0, i32 8
  %55 = load ptr, ptr %54, align 8, !tbaa !24
  call void @PaPulseAudio_Lock(ptr noundef %55)
  br label %56

56:                                               ; preds = %43, %40, %34, %28, %2
  br label %57

57:                                               ; preds = %56
  %58 = load ptr, ptr %6, align 8, !tbaa !19
  %59 = getelementptr inbounds nuw %struct.PaPulseAudio_HostApiRepresentation, ptr %58, i32 0, i32 8
  %60 = load ptr, ptr %59, align 8, !tbaa !24
  call void @PaPulseAudio_UnLock(ptr noundef %60)
  %61 = load ptr, ptr %3, align 8, !tbaa !42
  %62 = getelementptr inbounds nuw %struct.PaPulseAudio_Stream, ptr %61, i32 0, i32 27
  store volatile i32 0, ptr %62, align 8, !tbaa !63
  %63 = load ptr, ptr %3, align 8, !tbaa !42
  %64 = getelementptr inbounds nuw %struct.PaPulseAudio_Stream, ptr %63, i32 0, i32 28
  store volatile i32 1, ptr %64, align 4, !tbaa !66
  %65 = load ptr, ptr %3, align 8, !tbaa !42
  %66 = getelementptr inbounds nuw %struct.PaPulseAudio_Stream, ptr %65, i32 0, i32 29
  store volatile i32 0, ptr %66, align 8, !tbaa !64
  %67 = load ptr, ptr %3, align 8, !tbaa !42
  %68 = getelementptr inbounds nuw %struct.PaPulseAudio_Stream, ptr %67, i32 0, i32 30
  store volatile i32 1, ptr %68, align 4, !tbaa !70
  %69 = load i32, ptr %5, align 4, !tbaa !10
  call void @llvm.lifetime.end.p0(i64 8, ptr %7) #6
  call void @llvm.lifetime.end.p0(i64 8, ptr %6) #6
  call void @llvm.lifetime.end.p0(i64 4, ptr %5) #6
  ret i32 %69
}