; Function Attrs: nounwind uwtable
define internal fastcc void @RequestStop(ptr noundef %0, i32 noundef range(i32 0, 2) %1) unnamed_addr #0 {
  %3 = alloca ptr, align 8
  %4 = getelementptr inbounds nuw i8, ptr %0, i64 408
  %5 = load ptr, ptr %4, align 8, !tbaa !60
  call void @llvm.lifetime.start.p0(i64 8, ptr nonnull %3) #5
  %6 = getelementptr inbounds nuw i8, ptr %5, i64 82216
  %7 = load ptr, ptr %6, align 8, !tbaa !17
  %8 = tail call i32 @pa_threaded_mainloop_in_thread(ptr noundef %7) #5
  %.not.i = icmp eq i32 %8, 0
  br i1 %.not.i, label %9, label %PaPulseAudio_Lock.exit

9:                                                ; preds = %2
  tail call void @pa_threaded_mainloop_lock(ptr noundef %7) #5
  br label %PaPulseAudio_Lock.exit

PaPulseAudio_Lock.exit:                           ; preds = %2, %9
  %10 = getelementptr inbounds nuw i8, ptr %0, i64 648
  store volatile i32 0, ptr %10, align 8, !tbaa !54
  %11 = getelementptr inbounds nuw i8, ptr %0, i64 652
  store volatile i32 1, ptr %11, align 4, !tbaa !57
  %12 = getelementptr inbounds nuw i8, ptr %0, i64 656
  store volatile i32 0, ptr %12, align 8, !tbaa !55
  %13 = getelementptr inbounds nuw i8, ptr %0, i64 660
  store volatile i32 1, ptr %13, align 4, !tbaa !61
  %14 = getelementptr inbounds nuw i8, ptr %0, i64 640
  store i64 0, ptr %14, align 8, !tbaa !58
  %15 = getelementptr inbounds nuw i8, ptr %0, i64 464
  %16 = load ptr, ptr %15, align 8, !tbaa !49
  %.not = icmp eq ptr %16, null
  br i1 %.not, label %PaPulseAudio_Lock.exit24, label %17

17:                                               ; preds = %PaPulseAudio_Lock.exit
  %18 = tail call i32 @pa_stream_get_state(ptr noundef nonnull %16) #5
  %19 = icmp eq i32 %18, 2
  br i1 %19, label %20, label %PaPulseAudio_Lock.exit24

20:                                               ; preds = %17
  %21 = load ptr, ptr %15, align 8, !tbaa !49
  %22 = tail call i32 @pa_stream_is_corked(ptr noundef %21) #5
  %23 = or i32 %22, %1
  %or.cond.not = icmp eq i32 %23, 0
  br i1 %or.cond.not, label %24, label %PaPulseAudio_Lock.exit24

24:                                               ; preds = %20
  %25 = load ptr, ptr %15, align 8, !tbaa !49
  %26 = tail call ptr @pa_stream_cork(ptr noundef %25, i32 noundef 1, ptr noundef nonnull @PaPulseAudio_CorkSuccessCb, ptr noundef nonnull %0) #5
  store ptr %26, ptr %3, align 8, !tbaa !14
  %27 = load ptr, ptr %6, align 8, !tbaa !17
  %28 = tail call i32 @pa_threaded_mainloop_in_thread(ptr noundef %27) #5
  %.not.i22 = icmp eq i32 %28, 0
  br i1 %.not.i22, label %29, label %PaPulseAudio_UnLock.exit

29:                                               ; preds = %24
  tail call void @pa_threaded_mainloop_unlock(ptr noundef %27) #5
  br label %PaPulseAudio_UnLock.exit

PaPulseAudio_UnLock.exit:                         ; preds = %24, %29
  call void @PaPulseAudio_ReleaseOperation(ptr noundef nonnull %5, ptr noundef nonnull %3)
  %30 = load ptr, ptr %6, align 8, !tbaa !17
  %31 = tail call i32 @pa_threaded_mainloop_in_thread(ptr noundef %30) #5
  %.not.i23 = icmp eq i32 %31, 0
  br i1 %.not.i23, label %32, label %PaPulseAudio_Lock.exit24

32:                                               ; preds = %PaPulseAudio_UnLock.exit
  tail call void @pa_threaded_mainloop_lock(ptr noundef %30) #5
  br label %PaPulseAudio_Lock.exit24

PaPulseAudio_Lock.exit24:                         ; preds = %32, %PaPulseAudio_UnLock.exit, %PaPulseAudio_Lock.exit, %17, %20
  %33 = load ptr, ptr %6, align 8, !tbaa !17
  %34 = tail call i32 @pa_threaded_mainloop_in_thread(ptr noundef %33) #5
  %.not.i25 = icmp eq i32 %34, 0
  br i1 %.not.i25, label %35, label %PaPulseAudio_UnLock.exit26

35:                                               ; preds = %PaPulseAudio_Lock.exit24
  tail call void @pa_threaded_mainloop_unlock(ptr noundef %33) #5
  br label %PaPulseAudio_UnLock.exit26

PaPulseAudio_UnLock.exit26:                       ; preds = %PaPulseAudio_Lock.exit24, %35
  store volatile i32 0, ptr %10, align 8, !tbaa !54
  store volatile i32 1, ptr %11, align 4, !tbaa !57
  store volatile i32 0, ptr %12, align 8, !tbaa !55
  store volatile i32 1, ptr %13, align 4, !tbaa !61
  call void @llvm.lifetime.end.p0(i64 8, ptr nonnull %3) #5
  ret void
}